target datalayout = "e-m:e-p270:32:32-p271:32:32-p272:64:64-i64:64-i128:128-f80:128-n8:16:32:64-S128"
target triple = "x86_64-pc-linux-gnu"

%struct.Abc_Ntk_t_ = type { i32, i32, ptr, ptr, ptr, ptr, ptr, ptr, ptr, ptr, ptr, ptr, ptr, [11 x i32], i32, i32, i32, i32, ptr, i32, ptr, ptr, i32, i32, i32, double, i32, %struct.Vec_Int_t_, ptr, ptr, ptr, ptr, ptr, float, i32, ptr, ptr, ptr, ptr, ptr, ptr, ptr, ptr, ptr, ptr, ptr, ptr, ptr, ptr, ptr, ptr, ptr, ptr, ptr, ptr, ptr, ptr }
%struct.Vec_Int_t_ = type { i32, i32, ptr }
%struct.Abc_Des_t_ = type { ptr, ptr, ptr, ptr, ptr, ptr, ptr }
%struct.Vec_Ptr_t_ = type { i32, i32, ptr }

@.str = private unnamed_addr constant [2 x i8] c"w\00", align 1
@stdout = external global ptr, align 8
@.str.1 = private unnamed_addr constant [48 x i8] c"Io_WriteBlifMv(): Cannot open the output file.\0A\00", align 1
@.str.2 = private unnamed_addr constant [39 x i8] c"# Benchmark \22%s\22 written by ABC on %s\0A\00", align 1
@.str.3 = private unnamed_addr constant [3 x i8] c"\0A\0A\00", align 1

; Function Attrs: inlinehint nounwind uwtable
define internal ptr @Vec_PtrEntry(ptr noundef %0, i32 noundef %1) #4 {
  %3 = alloca ptr, align 8
  %4 = alloca i32, align 4
  store ptr %0, ptr %3, align 8, !tbaa !35
  store i32 %1, ptr %4, align 4, !tbaa !29
  %5 = load ptr, ptr %3, align 8, !tbaa !35
  %6 = getelementptr inbounds nuw %struct.Vec_Ptr_t_, ptr %5, i32 0, i32 2
  %7 = load ptr, ptr %6, align 8, !tbaa !38
  %8 = load i32, ptr %4, align 4, !tbaa !29
  %9 = sext i32 %8 to i64
  %10 = getelementptr inbounds ptr, ptr %7, i64 %9
  %11 = load ptr, ptr %10, align 8, !tbaa !39
  ret ptr %11
}

; Function Attrs: inlinehint nounwind uwtable
define internal i32 @Vec_PtrSize(ptr noundef %0) #4 {
  %2 = alloca ptr, align 8
  store ptr %0, ptr %2, align 8, !tbaa !35
  %3 = load ptr, ptr %2, align 8, !tbaa !35
  %4 = getelementptr inbounds nuw %struct.Vec_Ptr_t_, ptr %3, i32 0, i32 1
  %5 = load i32, ptr %4, align 4, !tbaa !36
  ret i32 %5
}

; Function Attrs: nounwind uwtable
define void @Io_WriteBlifMv(ptr noundef %0, ptr noundef %1) #0 {
  %3 = alloca ptr, align 8
  %4 = alloca ptr, align 8
  %5 = alloca ptr, align 8
  %6 = alloca ptr, align 8
  %7 = alloca i32, align 4
  %8 = alloca i32, align 4
  store ptr %0, ptr %3, align 8, !tbaa !3
  store ptr %1, ptr %4, align 8, !tbaa !8
  call void @llvm.lifetime.start.p0(i64 8, ptr %5) #10
  call void @llvm.lifetime.start.p0(i64 8, ptr %6) #10
  call void @llvm.lifetime.start.p0(i64 4, ptr %7) #10
  %9 = load ptr, ptr %4, align 8, !tbaa !8
  %10 = call noalias ptr @fopen(ptr noundef %9, ptr noundef @.str)
  store ptr %10, ptr %5, align 8, !tbaa !10
  %11 = load ptr, ptr %5, align 8, !tbaa !10
  %12 = icmp eq ptr %11, null
  br i1 %12, label %13, label %16

13:                                               ; preds = %2
  %14 = load ptr, ptr @stdout, align 8, !tbaa !10
  %15 = call i32 (ptr, ptr, ...) @fprintf(ptr noundef %14, ptr noundef @.str.1) #10
  store i32 1, ptr %8, align 4
  br label %66

16:                                               ; preds = %2
  %17 = load ptr, ptr %5, align 8, !tbaa !10
  %18 = load ptr, ptr %3, align 8, !tbaa !3
  %19 = getelementptr inbounds nuw %struct.Abc_Ntk_t_, ptr %18, i32 0, i32 2
  %20 = load ptr, ptr %19, align 8, !tbaa !12
  %21 = call ptr (...) @Extra_TimeStamp()
  %22 = call i32 (ptr, ptr, ...) @fprintf(ptr noundef %17, ptr noundef @.str.2, ptr noundef %20, ptr noundef %21) #10
  %23 = load ptr, ptr %5, align 8, !tbaa !10
  %24 = load ptr, ptr %3, align 8, !tbaa !3
  call void @Io_NtkWriteBlifMv(ptr noundef %23, ptr noundef %24)
  %25 = load ptr, ptr %3, align 8, !tbaa !3
  %26 = getelementptr inbounds nuw %struct.Abc_Ntk_t_, ptr %25, i32 0, i32 20
  %27 = load ptr, ptr %26, align 8, !tbaa !28
  %28 = icmp ne ptr %27, null
  br i1 %28, label %29, label %63

29:                                               ; preds = %16
  store i32 0, ptr %7, align 4, !tbaa !29
  br label %30

30:                                               ; preds = %59, %29
  %31 = load i32, ptr %7, align 4, !tbaa !29
  %32 = load ptr, ptr %3, align 8, !tbaa !3
  %33 = getelementptr inbounds nuw %struct.Abc_Ntk_t_, ptr %32, i32 0, i32 20
  %34 = load ptr, ptr %33, align 8, !tbaa !28
  %35 = getelementptr inbounds nuw %struct.Abc_Des_t_, ptr %34, i32 0, i32 3
  %36 = load ptr, ptr %35, align 8, !tbaa !30
  %37 = call i32 @Vec_PtrSize(ptr noundef %36)
  %38 = icmp slt i32 %31, %37
  br i1 %38, label %39, label %47

39:                                               ; preds = %30
  %40 = load ptr, ptr %3, align 8, !tbaa !3
  %41 = getelementptr inbounds nuw %struct.Abc_Ntk_t_, ptr %40, i32 0, i32 20
  %42 = load ptr, ptr %41, align 8, !tbaa !28
  %43 = getelementptr inbounds nuw %struct.Abc_Des_t_, ptr %42, i32 0, i32 3
  %44 = load ptr, ptr %43, align 8, !tbaa !30
  %45 = load i32, ptr %7, align 4, !tbaa !29
  %46 = call ptr @Vec_PtrEntry(ptr noundef %44, i32 noundef %45)
  store ptr %46, ptr %6, align 8, !tbaa !3
  br label %47

47:                                               ; preds = %39, %30
  %48 = phi i1 [ false, %30 ], [ true, %39 ]
  br i1 %48, label %49, label %62

49:                                               ; preds = %47
  %50 = load ptr, ptr %6, align 8, !tbaa !3
  %51 = load ptr, ptr %3, align 8, !tbaa !3
  %52 = icmp eq ptr %50, %51
  br i1 %52, label %53, label %54

53:                                               ; preds = %49
  br label %59

54:                                               ; preds = %49
  %55 = load ptr, ptr %5, align 8, !tbaa !10
  %56 = call i32 (ptr, ptr, ...) @fprintf(ptr noundef %55, ptr noundef @.str.3) #10
  %57 = load ptr, ptr %5, align 8, !tbaa !10
  %58 = load ptr, ptr %6, align 8, !tbaa !3
  call void @Io_NtkWriteBlifMv(ptr noundef %57, ptr noundef %58)
  br label %59

59:                                               ; preds = %54, %53
  %60 = load i32, ptr %7, align 4, !tbaa !29
  %61 = add nsw i32 %60, 1
  store i32 %61, ptr %7, align 4, !tbaa !29
  br label %30, !llvm.loop !33

62:                                               ; preds = %47
  br label %63

63:                                               ; preds = %62, %16
  %64 = load ptr, ptr %5, align 8, !tbaa !10
  %65 = call i32 @fclose(ptr noundef %64)
  store i32 0, ptr %8, align 4
  br label %66

66:                                               ; preds = %63, %13
  call void @llvm.lifetime.end.p0(i64 4, ptr %7) #10
  call void @llvm.lifetime.end.p0(i64 8, ptr %6) #10
  call void @llvm.lifetime.end.p0(i64 8, ptr %5) #10
  %67 = load i32, ptr %8, align 4
  switch i32 %67, label %69 [
    i32 0, label %68
    i32 1, label %68
  ]

68:                                               ; preds = %66, %66
  ret void

69:                                               ; preds = %66
  unreachable
}