; Function Attrs: nounwind uwtable
define void @Io_WriteBlifMv(ptr noundef readonly %0, ptr noundef readonly captures(none) %1) local_unnamed_addr #0 {
  %3 = tail call noalias ptr @fopen(ptr noundef %1, ptr noundef nonnull @.str)
  %4 = icmp eq ptr %3, null
  br i1 %4, label %5, label %8

5:                                                ; preds = %2
  %6 = load ptr, ptr @stdout, align 8, !tbaa !3
  %7 = tail call i64 @fwrite(ptr nonnull @.str.1, i64 47, i64 1, ptr %6)
  br label %35

8:                                                ; preds = %2
  %9 = getelementptr inbounds nuw i8, ptr %0, i64 8
  %10 = load ptr, ptr %9, align 8, !tbaa !8
  %11 = tail call ptr (...) @Extra_TimeStamp() #10
  %12 = tail call i32 (ptr, ptr, ...) @fprintf(ptr noundef nonnull %3, ptr noundef nonnull @.str.2, ptr noundef %10, ptr noundef %11) #10
  tail call fastcc void @Io_NtkWriteBlifMv(ptr noundef %3, ptr noundef %0)
  %13 = getelementptr inbounds nuw i8, ptr %0, i64 176
  %14 = load ptr, ptr %13, align 8, !tbaa !26
  %.not = icmp eq ptr %14, null
  br i1 %.not, label %.critedge, label %.preheader

.preheader:                                       ; preds = %8
  %15 = getelementptr inbounds nuw i8, ptr %14, i64 24
  %16 = load ptr, ptr %15, align 8, !tbaa !27
  %17 = getelementptr i8, ptr %16, i64 4
  %.val20 = load i32, ptr %17, align 4, !tbaa !30
  %18 = icmp sgt i32 %.val20, 0
  br i1 %18, label %.lr.ph, label %.critedge

.lr.ph:                                           ; preds = %.preheader, %27
  %19 = phi ptr [ %28, %27 ], [ %14, %.preheader ]
  %indvars.iv = phi i64 [ %indvars.iv.next, %27 ], [ 0, %.preheader ]
  %20 = phi ptr [ %30, %27 ], [ %16, %.preheader ]
  %21 = getelementptr i8, ptr %20, i64 8
  %.val19 = load ptr, ptr %21, align 8, !tbaa !32
  %22 = getelementptr inbounds nuw ptr, ptr %.val19, i64 %indvars.iv
  %23 = load ptr, ptr %22, align 8, !tbaa !33
  %24 = icmp eq ptr %23, %0
  br i1 %24, label %27, label %25

25:                                               ; preds = %.lr.ph
  %26 = tail call i64 @fwrite(ptr nonnull @.str.3, i64 2, i64 1, ptr nonnull %3)
  tail call fastcc void @Io_NtkWriteBlifMv(ptr noundef %3, ptr noundef %23)
  %.pre = load ptr, ptr %13, align 8, !tbaa !26
  br label %27

27:                                               ; preds = %.lr.ph, %25
  %28 = phi ptr [ %19, %.lr.ph ], [ %.pre, %25 ]
  %indvars.iv.next = add nuw nsw i64 %indvars.iv, 1
  %29 = getelementptr inbounds nuw i8, ptr %28, i64 24
  %30 = load ptr, ptr %29, align 8, !tbaa !27
  %31 = getelementptr i8, ptr %30, i64 4
  %.val = load i32, ptr %31, align 4, !tbaa !30
  %32 = sext i32 %.val to i64
  %33 = icmp slt i64 %indvars.iv.next, %32
  br i1 %33, label %.lr.ph, label %.critedge, !llvm.loop !34

.critedge:                                        ; preds = %27, %.preheader, %8
  %34 = tail call i32 @fclose(ptr noundef nonnull %3)
  br label %35

35:                                               ; preds = %.critedge, %5
  ret void
}